; Function Attrs: nounwind uwtable
define void @prte_mca_oob_tcp_component_hop_unknown(i32 noundef %0, i16 noundef signext %1, ptr noundef %2) local_unnamed_addr #0 {
  %4 = alloca %struct.timeval, align 8
  fence acquire
  %5 = load i32, ptr @prte_oob_base, align 8, !tbaa !3
  %or.cond = icmp ult i32 %5, 64
  br i1 %or.cond, label %6, label %15

6:                                                ; preds = %3
  %7 = zext nneg i32 %5 to i64
  %8 = getelementptr inbounds nuw [0 x %struct.pmix_output_desc_t], ptr @pmix_output_info, i64 0, i64 %7, i32 2
  %9 = load i32, ptr %8, align 4, !tbaa !20
  %10 = icmp sgt i32 %9, 6
  br i1 %10, label %11, label %15

11:                                               ; preds = %6
  %12 = tail call ptr @prte_util_print_name_args(ptr noundef nonnull @prte_process_info) #11
  %13 = getelementptr inbounds nuw i8, ptr %2, i64 264
  %14 = tail call ptr @prte_util_print_name_args(ptr noundef nonnull %13) #11
  tail call void (i32, ptr, ...) @pmix_output(i32 noundef %5, ptr noundef nonnull @.str.5, ptr noundef %12, ptr noundef %14) #11
  br label %15

15:                                               ; preds = %11, %6, %3
  %16 = load i8, ptr @prte_prteds_term_ordered, align 1, !tbaa !23, !range !24, !noundef !25
  %17 = trunc nuw i8 %16 to i1
  br i1 %17, label %24, label %18

18:                                               ; preds = %15
  %19 = load i8, ptr @prte_finalizing, align 1, !tbaa !23, !range !24, !noundef !25
  %20 = trunc nuw i8 %19 to i1
  br i1 %20, label %24, label %21

21:                                               ; preds = %18
  %22 = load i8, ptr @prte_abnormal_term_ordered, align 1, !tbaa !23, !range !24, !noundef !25
  %23 = trunc nuw i8 %22 to i1
  br i1 %23, label %24, label %48

24:                                               ; preds = %15, %18, %21
  %25 = tail call i32 @pthread_mutex_lock(ptr noundef %2) #11
  %26 = icmp eq i32 %25, 35
  br i1 %26, label %27, label %pmix_obj_update.exit27

27:                                               ; preds = %24
  %28 = tail call ptr @__errno_location() #12
  store i32 35, ptr %28, align 4, !tbaa !44
  tail call void @perror(ptr noundef nonnull @.str.14) #13
  tail call void @abort() #14
  unreachable

pmix_obj_update.exit27:                           ; preds = %24
  %29 = getelementptr inbounds nuw i8, ptr %2, i64 48
  %30 = load i32, ptr %29, align 8, !tbaa !45
  %31 = add nsw i32 %30, -1
  store i32 %31, ptr %29, align 8, !tbaa !45
  %32 = tail call i32 @pthread_mutex_unlock(ptr noundef %2) #11
  %33 = icmp eq i32 %31, 0
  br i1 %33, label %34, label %96

34:                                               ; preds = %pmix_obj_update.exit27
  %35 = getelementptr inbounds nuw i8, ptr %2, i64 40
  %36 = load ptr, ptr %35, align 8, !tbaa !46
  %37 = getelementptr inbounds nuw i8, ptr %36, i64 48
  %38 = load ptr, ptr %37, align 8, !tbaa !47
  %39 = load ptr, ptr %38, align 8, !tbaa !49
  %.not6.i = icmp eq ptr %39, null
  br i1 %.not6.i, label %pmix_obj_run_destructors.exit, label %.lr.ph.i

.lr.ph.i:                                         ; preds = %34, %.lr.ph.i
  %40 = phi ptr [ %42, %.lr.ph.i ], [ %39, %34 ]
  %.07.i = phi ptr [ %41, %.lr.ph.i ], [ %38, %34 ]
  tail call void %40(ptr noundef %2) #11
  %41 = getelementptr inbounds nuw i8, ptr %.07.i, i64 8
  %42 = load ptr, ptr %41, align 8, !tbaa !49
  %.not.i = icmp eq ptr %42, null
  br i1 %.not.i, label %pmix_obj_run_destructors.exit, label %.lr.ph.i, !llvm.loop !50

pmix_obj_run_destructors.exit:                    ; preds = %.lr.ph.i, %34
  %43 = getelementptr inbounds nuw i8, ptr %2, i64 96
  %44 = load ptr, ptr %43, align 8, !tbaa !52
  %.not26 = icmp eq ptr %44, null
  br i1 %.not26, label %47, label %45

45:                                               ; preds = %pmix_obj_run_destructors.exit
  %46 = getelementptr inbounds nuw i8, ptr %2, i64 56
  tail call void %44(ptr noundef nonnull %46, ptr noundef nonnull %2) #11
  br label %96

47:                                               ; preds = %pmix_obj_run_destructors.exit
  tail call void @free(ptr noundef nonnull %2) #11
  br label %96

48:                                               ; preds = %21
  %49 = getelementptr inbounds nuw i8, ptr %2, i64 264
  %50 = load i32, ptr getelementptr inbounds nuw (i8, ptr @prte_state_base_framework, i64 72), align 8, !tbaa !36
  %51 = icmp sgt i32 %50, 0
  br i1 %51, label %52, label %71

52:                                               ; preds = %48
  call void @llvm.lifetime.start.p0(i64 16, ptr nonnull %4) #11
  %53 = call i32 @gettimeofday(ptr noundef nonnull %4, ptr noundef null) #11
  %54 = load i64, ptr %4, align 8, !tbaa !39
  %55 = sitofp i64 %54 to double
  %56 = getelementptr inbounds nuw i8, ptr %4, i64 8
  %57 = load i64, ptr %56, align 8, !tbaa !40
  %58 = sitofp i64 %57 to double
  %59 = fdiv double %58, 1.000000e+06
  %60 = fadd double %59, %55
  call void @llvm.lifetime.end.p0(i64 16, ptr nonnull %4) #11
  %61 = load i32, ptr getelementptr inbounds nuw (i8, ptr @prte_state_base_framework, i64 76), align 4, !tbaa !41
  %or.cond3 = icmp ult i32 %61, 64
  br i1 %or.cond3, label %62, label %71

62:                                               ; preds = %52
  %63 = zext nneg i32 %61 to i64
  %64 = getelementptr inbounds nuw [0 x %struct.pmix_output_desc_t], ptr @pmix_output_info, i64 0, i64 %63, i32 2
  %65 = load i32, ptr %64, align 4, !tbaa !20
  %66 = icmp sgt i32 %65, 0
  br i1 %66, label %67, label %71

67:                                               ; preds = %62
  %68 = tail call ptr @prte_util_print_name_args(ptr noundef nonnull @prte_process_info) #11
  %69 = tail call ptr @prte_util_print_name_args(ptr noundef nonnull %49) #11
  %70 = tail call ptr @prte_proc_state_to_str(i32 noundef 64) #11
  tail call void (i32, ptr, ...) @pmix_output(i32 noundef %61, ptr noundef nonnull @.str.1, ptr noundef %68, double noundef %60, ptr noundef %69, ptr noundef %70, ptr noundef nonnull @.str.3, i32 noundef 159) #11
  br label %71

71:                                               ; preds = %52, %62, %67, %48
  %72 = load ptr, ptr getelementptr inbounds nuw (i8, ptr @prte_state, i64 48), align 8, !tbaa !42
  tail call void %72(ptr noundef nonnull %49, i32 noundef 64) #11
  %73 = tail call i32 @pthread_mutex_lock(ptr noundef %2) #11
  %74 = icmp eq i32 %73, 35
  br i1 %74, label %75, label %pmix_obj_update.exit

75:                                               ; preds = %71
  %76 = tail call ptr @__errno_location() #12
  store i32 35, ptr %76, align 4, !tbaa !44
  tail call void @perror(ptr noundef nonnull @.str.14) #13
  tail call void @abort() #14
  unreachable

pmix_obj_update.exit:                             ; preds = %71
  %77 = getelementptr inbounds nuw i8, ptr %2, i64 48
  %78 = load i32, ptr %77, align 8, !tbaa !45
  %79 = add nsw i32 %78, -1
  store i32 %79, ptr %77, align 8, !tbaa !45
  %80 = tail call i32 @pthread_mutex_unlock(ptr noundef nonnull %2) #11
  %81 = icmp eq i32 %79, 0
  br i1 %81, label %82, label %96

82:                                               ; preds = %pmix_obj_update.exit
  %83 = getelementptr inbounds nuw i8, ptr %2, i64 40
  %84 = load ptr, ptr %83, align 8, !tbaa !46
  %85 = getelementptr inbounds nuw i8, ptr %84, i64 48
  %86 = load ptr, ptr %85, align 8, !tbaa !47
  %87 = load ptr, ptr %86, align 8, !tbaa !49
  %.not6.i29 = icmp eq ptr %87, null
  br i1 %.not6.i29, label %pmix_obj_run_destructors.exit33, label %.lr.ph.i30

.lr.ph.i30:                                       ; preds = %82, %.lr.ph.i30
  %88 = phi ptr [ %90, %.lr.ph.i30 ], [ %87, %82 ]
  %.07.i31 = phi ptr [ %89, %.lr.ph.i30 ], [ %86, %82 ]
  tail call void %88(ptr noundef nonnull %2) #11
  %89 = getelementptr inbounds nuw i8, ptr %.07.i31, i64 8
  %90 = load ptr, ptr %89, align 8, !tbaa !49
  %.not.i32 = icmp eq ptr %90, null
  br i1 %.not.i32, label %pmix_obj_run_destructors.exit33, label %.lr.ph.i30, !llvm.loop !50

pmix_obj_run_destructors.exit33:                  ; preds = %.lr.ph.i30, %82
  %91 = getelementptr inbounds nuw i8, ptr %2, i64 96
  %92 = load ptr, ptr %91, align 8, !tbaa !52
  %.not = icmp eq ptr %92, null
  br i1 %.not, label %95, label %93

93:                                               ; preds = %pmix_obj_run_destructors.exit33
  %94 = getelementptr inbounds nuw i8, ptr %2, i64 56
  tail call void %92(ptr noundef nonnull %94, ptr noundef nonnull %2) #11
  br label %96

95:                                               ; preds = %pmix_obj_run_destructors.exit33
  tail call void @free(ptr noundef nonnull %2) #11
  br label %96

96:                                               ; preds = %pmix_obj_update.exit, %95, %93, %pmix_obj_update.exit27, %47, %45
  ret void
}